; Function Attrs: mustprogress uwtable
define hidden noundef i64 @_ZNK5arith3sls3dttEbRKNS0_4ineqElll(ptr nocapture noundef nonnull readnone align 8 dereferenceable(97) %this, i1 noundef zeroext %sign, ptr nocapture noundef nonnull readonly align 8 dereferenceable(36) %ineq, i64 noundef %coeff, i64 noundef %old_value, i64 noundef %new_value) local_unnamed_addr #5 align 2 {
entry:
  %m_args_value = getelementptr inbounds i8, ptr %ineq, i64 24
  %0 = load i64, ptr %m_args_value, align 8
  %sub = sub nsw i64 %new_value, %old_value
  %mul = mul nsw i64 %sub, %coeff
  %add = add nsw i64 %0, %mul
  %m_op.i = getelementptr inbounds i8, ptr %ineq, i64 8
  %1 = load i32, ptr %m_op.i, align 8
  switch i32 %1, label %sw.default.i [
    i32 1, label %sw.bb.i
    i32 0, label %sw.bb11.i
    i32 3, label %sw.bb23.i
    i32 2, label %sw.bb35.i
  ]

sw.bb.i:                                          ; preds = %entry
  %m_bound.i = getelementptr inbounds i8, ptr %ineq, i64 16
  %2 = load i64, ptr %m_bound.i, align 8
  %cmp.not.i = icmp slt i64 %2, %add
  br i1 %sign, label %if.then.i, label %if.end4.i

if.then.i:                                        ; preds = %sw.bb.i
  br i1 %cmp.not.i, label %_ZNK5arith3sls3dttEblRKNS0_4ineqE.exit, label %if.then2.i

if.then2.i:                                       ; preds = %if.then.i
  %reass.sub = sub i64 %2, %add
  %add.i = add i64 %reass.sub, 1
  br label %_ZNK5arith3sls3dttEblRKNS0_4ineqE.exit

if.end4.i:                                        ; preds = %sw.bb.i
  %sub10.i = sub nsw i64 %add, %2
  %spec.select.i = select i1 %cmp.not.i, i64 %sub10.i, i64 0
  br label %_ZNK5arith3sls3dttEblRKNS0_4ineqE.exit

sw.bb11.i:                                        ; preds = %entry
  %m_bound14.i = getelementptr inbounds i8, ptr %ineq, i64 16
  %3 = load i64, ptr %m_bound14.i, align 8
  br i1 %sign, label %if.then13.i, label %if.end18.i

if.then13.i:                                      ; preds = %sw.bb11.i
  %cmp15.i = icmp eq i64 %3, %add
  %..i = zext i1 %cmp15.i to i64
  br label %_ZNK5arith3sls3dttEblRKNS0_4ineqE.exit

if.end18.i:                                       ; preds = %sw.bb11.i
  %cmp20.i = icmp ne i64 %3, %add
  %.30.i = zext i1 %cmp20.i to i64
  br label %_ZNK5arith3sls3dttEblRKNS0_4ineqE.exit

sw.bb23.i:                                        ; preds = %entry
  %m_bound26.i = getelementptr inbounds i8, ptr %ineq, i64 16
  %4 = load i64, ptr %m_bound26.i, align 8
  br i1 %sign, label %if.then25.i, label %if.end30.i

if.then25.i:                                      ; preds = %sw.bb23.i
  %cmp27.i = icmp ne i64 %4, %add
  %.31.i = zext i1 %cmp27.i to i64
  br label %_ZNK5arith3sls3dttEblRKNS0_4ineqE.exit

if.end30.i:                                       ; preds = %sw.bb23.i
  %cmp32.i = icmp eq i64 %4, %add
  %.32.i = zext i1 %cmp32.i to i64
  br label %_ZNK5arith3sls3dttEblRKNS0_4ineqE.exit

sw.bb35.i:                                        ; preds = %entry
  %m_bound38.i = getelementptr inbounds i8, ptr %ineq, i64 16
  %5 = load i64, ptr %m_bound38.i, align 8
  %cmp39.i = icmp sgt i64 %5, %add
  br i1 %sign, label %if.then37.i, label %if.end44.i

if.then37.i:                                      ; preds = %sw.bb35.i
  %sub42.i = sub nsw i64 %5, %add
  %spec.select33.i = select i1 %cmp39.i, i64 %sub42.i, i64 0
  br label %_ZNK5arith3sls3dttEblRKNS0_4ineqE.exit

if.end44.i:                                       ; preds = %sw.bb35.i
  br i1 %cmp39.i, label %_ZNK5arith3sls3dttEblRKNS0_4ineqE.exit, label %if.end48.i

if.end48.i:                                       ; preds = %if.end44.i
  %sub50.i = add i64 %add, 1
  %add51.i = sub i64 %sub50.i, %5
  br label %_ZNK5arith3sls3dttEblRKNS0_4ineqE.exit

sw.default.i:                                     ; preds = %entry
  tail call void @_Z26notify_assertion_violationPKciS0_(ptr noundef nonnull @.str.9, i32 noundef 194, ptr noundef nonnull @.str.11)
  tail call void @exit(i32 noundef 114) #18
  unreachable

_ZNK5arith3sls3dttEblRKNS0_4ineqE.exit:           ; preds = %if.then.i, %if.then2.i, %if.end4.i, %if.then13.i, %if.end18.i, %if.then25.i, %if.end30.i, %if.then37.i, %if.end44.i, %if.end48.i
  %retval.0.i = phi i64 [ %add51.i, %if.end48.i ], [ %add.i, %if.then2.i ], [ 0, %if.then.i ], [ %..i, %if.then13.i ], [ %.30.i, %if.end18.i ], [ %.31.i, %if.then25.i ], [ %.32.i, %if.end30.i ], [ 0, %if.end44.i ], [ %spec.select.i, %if.end4.i ], [ %spec.select33.i, %if.then37.i ]
  ret i64 %retval.0.i
}